target datalayout = "e-m:e-p270:32:32-p271:32:32-p272:64:64-i64:64-i128:128-f80:128-n8:16:32:64-S128"
target triple = "x86_64-pc-linux-gnu"

%struct.anon = type { i8 }
%struct.anon.19 = type { i8 }
%struct.hb_extents_t = type { float, float, float, float }

@_ZL6hb_max = internal constant %struct.anon zeroinitializer, align 1
@_ZL6hb_min = internal constant %struct.anon.19 zeroinitializer, align 1

; Function Attrs: mustprogress nounwind uwtable
define internal noundef nonnull align 4 dereferenceable(4) ptr @"_ZNK3$_0clIRfS1_EEDTqugefp_fp0_fp_fp0_EOT_OT0_"(ptr noundef nonnull align 1 dereferenceable(1) %0, ptr noundef nonnull align 4 dereferenceable(4) %1, ptr noundef nonnull align 4 dereferenceable(4) %2) #1 align 2 {
  %4 = alloca ptr, align 8
  %5 = alloca ptr, align 8
  %6 = alloca ptr, align 8
  store ptr %0, ptr %4, align 8
  store ptr %1, ptr %5, align 8
  store ptr %2, ptr %6, align 8
  %7 = load ptr, ptr %5, align 8
  %8 = load float, ptr %7, align 4
  %9 = load ptr, ptr %6, align 8
  %10 = load float, ptr %9, align 4
  %11 = fcmp oge float %8, %10
  br i1 %11, label %12, label %14

12:                                               ; preds = %3
  %13 = load ptr, ptr %5, align 8
  br label %16

14:                                               ; preds = %3
  %15 = load ptr, ptr %6, align 8
  br label %16

16:                                               ; preds = %14, %12
  %17 = phi ptr [ %13, %12 ], [ %15, %14 ]
  ret ptr %17
}

; Function Attrs: mustprogress nounwind uwtable
define internal noundef nonnull align 4 dereferenceable(4) ptr @"_ZNK3$_1clIRfS1_EEDTqulefp_fp0_fp_fp0_EOT_OT0_"(ptr noundef nonnull align 1 dereferenceable(1) %0, ptr noundef nonnull align 4 dereferenceable(4) %1, ptr noundef nonnull align 4 dereferenceable(4) %2) #1 align 2 {
  %4 = alloca ptr, align 8
  %5 = alloca ptr, align 8
  %6 = alloca ptr, align 8
  store ptr %0, ptr %4, align 8
  store ptr %1, ptr %5, align 8
  store ptr %2, ptr %6, align 8
  %7 = load ptr, ptr %5, align 8
  %8 = load float, ptr %7, align 4
  %9 = load ptr, ptr %6, align 8
  %10 = load float, ptr %9, align 4
  %11 = fcmp ole float %8, %10
  br i1 %11, label %12, label %14

12:                                               ; preds = %3
  %13 = load ptr, ptr %5, align 8
  br label %16

14:                                               ; preds = %3
  %15 = load ptr, ptr %6, align 8
  br label %16

16:                                               ; preds = %14, %12
  %17 = phi ptr [ %13, %12 ], [ %15, %14 ]
  ret ptr %17
}

; Function Attrs: mustprogress nounwind uwtable
define linkonce_odr hidden noundef zeroext i1 @_ZNK12hb_extents_t7is_voidEv(ptr noundef nonnull align 4 dereferenceable(16) %0) #1 comdat align 2 {
  %2 = alloca ptr, align 8
  store ptr %0, ptr %2, align 8
  %3 = load ptr, ptr %2, align 8
  %4 = getelementptr inbounds %struct.hb_extents_t, ptr %3, i32 0, i32 0
  %5 = load float, ptr %4, align 4
  %6 = getelementptr inbounds %struct.hb_extents_t, ptr %3, i32 0, i32 2
  %7 = load float, ptr %6, align 4
  %8 = fcmp ogt float %5, %7
  ret i1 %8
}

; Function Attrs: mustprogress uwtable
define linkonce_odr hidden void @_ZN12hb_extents_t9add_pointEff(ptr noundef nonnull align 4 dereferenceable(16) %0, float noundef %1, float noundef %2) #0 comdat align 2 {
  %4 = alloca ptr, align 8
  %5 = alloca float, align 4
  %6 = alloca float, align 4
  store ptr %0, ptr %4, align 8
  store float %1, ptr %5, align 4
  store float %2, ptr %6, align 4
  %7 = load ptr, ptr %4, align 8
  %8 = call noundef zeroext i1 @_ZNK12hb_extents_t7is_voidEv(ptr noundef nonnull align 4 dereferenceable(16) %7)
  br i1 %8, label %9, label %16

9:                                                ; preds = %3
  %10 = load float, ptr %5, align 4
  %11 = getelementptr inbounds %struct.hb_extents_t, ptr %7, i32 0, i32 2
  store float %10, ptr %11, align 4
  %12 = getelementptr inbounds %struct.hb_extents_t, ptr %7, i32 0, i32 0
  store float %10, ptr %12, align 4
  %13 = load float, ptr %6, align 4
  %14 = getelementptr inbounds %struct.hb_extents_t, ptr %7, i32 0, i32 3
  store float %13, ptr %14, align 4
  %15 = getelementptr inbounds %struct.hb_extents_t, ptr %7, i32 0, i32 1
  store float %13, ptr %15, align 4
  br label %33

16:                                               ; preds = %3
  %17 = getelementptr inbounds %struct.hb_extents_t, ptr %7, i32 0, i32 0
  %18 = call noundef nonnull align 4 dereferenceable(4) ptr @"_ZNK3$_1clIRfS1_EEDTqulefp_fp0_fp_fp0_EOT_OT0_"(ptr noundef nonnull align 1 dereferenceable(1) @_ZL6hb_min, ptr noundef nonnull align 4 dereferenceable(4) %17, ptr noundef nonnull align 4 dereferenceable(4) %5)
  %19 = load float, ptr %18, align 4
  %20 = getelementptr inbounds %struct.hb_extents_t, ptr %7, i32 0, i32 0
  store float %19, ptr %20, align 4
  %21 = getelementptr inbounds %struct.hb_extents_t, ptr %7, i32 0, i32 1
  %22 = call noundef nonnull align 4 dereferenceable(4) ptr @"_ZNK3$_1clIRfS1_EEDTqulefp_fp0_fp_fp0_EOT_OT0_"(ptr noundef nonnull align 1 dereferenceable(1) @_ZL6hb_min, ptr noundef nonnull align 4 dereferenceable(4) %21, ptr noundef nonnull align 4 dereferenceable(4) %6)
  %23 = load float, ptr %22, align 4
  %24 = getelementptr inbounds %struct.hb_extents_t, ptr %7, i32 0, i32 1
  store float %23, ptr %24, align 4
  %25 = getelementptr inbounds %struct.hb_extents_t, ptr %7, i32 0, i32 2
  %26 = call noundef nonnull align 4 dereferenceable(4) ptr @"_ZNK3$_0clIRfS1_EEDTqugefp_fp0_fp_fp0_EOT_OT0_"(ptr noundef nonnull align 1 dereferenceable(1) @_ZL6hb_max, ptr noundef nonnull align 4 dereferenceable(4) %25, ptr noundef nonnull align 4 dereferenceable(4) %5)
  %27 = load float, ptr %26, align 4
  %28 = getelementptr inbounds %struct.hb_extents_t, ptr %7, i32 0, i32 2
  store float %27, ptr %28, align 4
  %29 = getelementptr inbounds %struct.hb_extents_t, ptr %7, i32 0, i32 3
  %30 = call noundef nonnull align 4 dereferenceable(4) ptr @"_ZNK3$_0clIRfS1_EEDTqugefp_fp0_fp_fp0_EOT_OT0_"(ptr noundef nonnull align 1 dereferenceable(1) @_ZL6hb_max, ptr noundef nonnull align 4 dereferenceable(4) %29, ptr noundef nonnull align 4 dereferenceable(4) %6)
  %31 = load float, ptr %30, align 4
  %32 = getelementptr inbounds %struct.hb_extents_t, ptr %7, i32 0, i32 3
  store float %31, ptr %32, align 4
  br label %33

33:                                               ; preds = %16, %9
  ret void
}

; Function Attrs: mustprogress uwtable
define internal void @_ZL28hb_draw_extents_quadratic_toP15hb_draw_funcs_tPvP15hb_draw_state_tffffS1_(ptr noundef %0, ptr noundef %1, ptr noundef %2, float noundef %3, float noundef %4, float noundef %5, float noundef %6, ptr noundef %7) #0 {
  %9 = alloca ptr, align 8
  %10 = alloca ptr, align 8
  %11 = alloca ptr, align 8
  %12 = alloca float, align 4
  %13 = alloca float, align 4
  %14 = alloca float, align 4
  %15 = alloca float, align 4
  %16 = alloca ptr, align 8
  %17 = alloca ptr, align 8
  store ptr %0, ptr %9, align 8
  store ptr %1, ptr %10, align 8
  store ptr %2, ptr %11, align 8
  store float %3, ptr %12, align 4
  store float %4, ptr %13, align 4
  store float %5, ptr %14, align 4
  store float %6, ptr %15, align 4
  store ptr %7, ptr %16, align 8
  %18 = load ptr, ptr %10, align 8
  store ptr %18, ptr %17, align 8
  %19 = load ptr, ptr %17, align 8
  %20 = load float, ptr %12, align 4
  %21 = load float, ptr %13, align 4
  call void @_ZN12hb_extents_t9add_pointEff(ptr noundef nonnull align 4 dereferenceable(16) %19, float noundef %20, float noundef %21)
  %22 = load ptr, ptr %17, align 8
  %23 = load float, ptr %14, align 4
  %24 = load float, ptr %15, align 4
  call void @_ZN12hb_extents_t9add_pointEff(ptr noundef nonnull align 4 dereferenceable(16) %22, float noundef %23, float noundef %24)
  ret void
}