; Function Attrs: mustprogress nofree norecurse nosync nounwind willreturn memory(argmem: readwrite) uwtable
define internal void @_ZL28hb_draw_extents_quadratic_toP15hb_draw_funcs_tPvP15hb_draw_state_tffffS1_(ptr nocapture readnone %0, ptr nocapture noundef %1, ptr nocapture readnone %2, float noundef %3, float noundef %4, float noundef %5, float noundef %6, ptr nocapture readnone %7) #2 {
  %9 = load float, ptr %1, align 4
  %10 = getelementptr inbounds i8, ptr %1, i64 8
  %11 = load float, ptr %10, align 4
  %12 = fcmp ogt float %9, %11
  %13 = insertelement <2 x float> poison, float %3, i64 0
  %14 = insertelement <2 x float> %13, float %4, i64 1
  br i1 %12, label %_ZN12hb_extents_t9add_pointEff.exit.thread, label %_ZN12hb_extents_t9add_pointEff.exit

_ZN12hb_extents_t9add_pointEff.exit:              ; preds = %8
  %15 = getelementptr inbounds i8, ptr %1, i64 4
  %16 = load float, ptr %15, align 4
  %17 = insertelement <2 x float> poison, float %9, i64 0
  %18 = insertelement <2 x float> %17, float %16, i64 1
  %19 = fcmp ole <2 x float> %18, %14
  %20 = select <2 x i1> %19, <2 x float> %18, <2 x float> %14
  %21 = getelementptr inbounds i8, ptr %1, i64 12
  %22 = load float, ptr %21, align 4
  %23 = insertelement <2 x float> poison, float %11, i64 0
  %24 = insertelement <2 x float> %23, float %22, i64 1
  %25 = fcmp oge <2 x float> %24, %14
  %26 = select <2 x i1> %25, <2 x float> %24, <2 x float> %14
  %27 = extractelement <2 x float> %20, i64 0
  %28 = extractelement <2 x float> %26, i64 0
  %29 = fcmp ogt float %27, %28
  br i1 %29, label %30, label %_ZN12hb_extents_t9add_pointEff.exit.thread

30:                                               ; preds = %_ZN12hb_extents_t9add_pointEff.exit
  store float %5, ptr %10, align 4
  store float %5, ptr %1, align 4
  %31 = getelementptr inbounds i8, ptr %1, i64 12
  store float %6, ptr %31, align 4
  %32 = getelementptr inbounds i8, ptr %1, i64 4
  store float %6, ptr %32, align 4
  br label %_ZN12hb_extents_t9add_pointEff.exit11

_ZN12hb_extents_t9add_pointEff.exit.thread:       ; preds = %8, %_ZN12hb_extents_t9add_pointEff.exit
  %33 = phi <2 x float> [ %20, %_ZN12hb_extents_t9add_pointEff.exit ], [ %14, %8 ]
  %34 = phi <2 x float> [ %26, %_ZN12hb_extents_t9add_pointEff.exit ], [ %14, %8 ]
  %35 = insertelement <2 x float> poison, float %5, i64 0
  %36 = insertelement <2 x float> %35, float %6, i64 1
  %37 = fcmp ole <2 x float> %33, %36
  %38 = select <2 x i1> %37, <2 x float> %33, <2 x float> %36
  store <2 x float> %38, ptr %1, align 4
  %39 = fcmp oge <2 x float> %34, %36
  %40 = select <2 x i1> %39, <2 x float> %34, <2 x float> %36
  store <2 x float> %40, ptr %10, align 4
  br label %_ZN12hb_extents_t9add_pointEff.exit11

_ZN12hb_extents_t9add_pointEff.exit11:            ; preds = %30, %_ZN12hb_extents_t9add_pointEff.exit.thread
  ret void
}